target datalayout = "e-m:e-p270:32:32-p271:32:32-p272:64:64-i64:64-i128:128-f80:128-n8:16:32:64-S128"
target triple = "x86_64-pc-linux-gnu"

%"class.rocksdb::Slice" = type { ptr, i64 }
%"class.rocksdb::IterKey" = type { ptr, ptr, i64, i64, [39 x i8], i8, [39 x i8], ptr, i64, %"struct.std::array" }
%"struct.std::array" = type { [5 x %"class.rocksdb::Slice"] }

; Function Attrs: mustprogress nounwind uwtable
define linkonce_odr void @_ZN7rocksdb7IterKey20ResetSecondaryBufferEv(ptr noundef nonnull align 8 dereferenceable(208) %0) #5 comdat align 2 {
  %2 = alloca ptr, align 8
  store ptr %0, ptr %2, align 8, !tbaa !69
  %3 = load ptr, ptr %2, align 8
  %4 = getelementptr inbounds nuw %"class.rocksdb::IterKey", ptr %3, i32 0, i32 1
  %5 = load ptr, ptr %4, align 8, !tbaa !75
  %6 = getelementptr inbounds nuw %"class.rocksdb::IterKey", ptr %3, i32 0, i32 7
  %7 = load ptr, ptr %6, align 8, !tbaa !78
  %8 = icmp eq ptr %5, %7
  br i1 %8, label %9, label %11

9:                                                ; preds = %1
  %10 = getelementptr inbounds nuw %"class.rocksdb::IterKey", ptr %3, i32 0, i32 2
  store i64 0, ptr %10, align 8, !tbaa !76
  br label %11

11:                                               ; preds = %9, %1
  %12 = getelementptr inbounds nuw %"class.rocksdb::IterKey", ptr %3, i32 0, i32 7
  %13 = load ptr, ptr %12, align 8, !tbaa !78
  %14 = getelementptr inbounds nuw %"class.rocksdb::IterKey", ptr %3, i32 0, i32 6
  %15 = getelementptr inbounds [39 x i8], ptr %14, i64 0, i64 0
  %16 = icmp ne ptr %13, %15
  br i1 %16, label %17, label %26

17:                                               ; preds = %11
  %18 = getelementptr inbounds nuw %"class.rocksdb::IterKey", ptr %3, i32 0, i32 7
  %19 = load ptr, ptr %18, align 8, !tbaa !78
  %20 = icmp eq ptr %19, null
  br i1 %20, label %22, label %21

21:                                               ; preds = %17
  call void @_ZdaPv(ptr noundef %19) #22
  br label %22

22:                                               ; preds = %21, %17
  %23 = getelementptr inbounds nuw %"class.rocksdb::IterKey", ptr %3, i32 0, i32 6
  %24 = getelementptr inbounds [39 x i8], ptr %23, i64 0, i64 0
  %25 = getelementptr inbounds nuw %"class.rocksdb::IterKey", ptr %3, i32 0, i32 7
  store ptr %24, ptr %25, align 8, !tbaa !78
  br label %26

26:                                               ; preds = %22, %11
  %27 = getelementptr inbounds nuw %"class.rocksdb::IterKey", ptr %3, i32 0, i32 8
  store i64 39, ptr %27, align 8, !tbaa !77
  ret void
}

; Function Attrs: mustprogress uwtable
define void @_ZN7rocksdb7IterKey30EnlargeSecondaryBufferIfNeededEm(ptr noundef nonnull align 8 dereferenceable(208) %0, i64 noundef %1) #3 align 2 {
  %3 = alloca ptr, align 8
  %4 = alloca i64, align 8
  store ptr %0, ptr %3, align 8, !tbaa !69
  store i64 %1, ptr %4, align 8, !tbaa !4
  %5 = load ptr, ptr %3, align 8
  %6 = load i64, ptr %4, align 8, !tbaa !4
  %7 = getelementptr inbounds nuw %"class.rocksdb::IterKey", ptr %5, i32 0, i32 8
  %8 = load i64, ptr %7, align 8, !tbaa !77
  %9 = icmp ule i64 %6, %8
  br i1 %9, label %10, label %11

10:                                               ; preds = %2
  br label %17

11:                                               ; preds = %2
  call void @_ZN7rocksdb7IterKey20ResetSecondaryBufferEv(ptr noundef nonnull align 8 dereferenceable(208) %5)
  %12 = load i64, ptr %4, align 8, !tbaa !4
  %13 = call noalias noundef nonnull ptr @_Znam(i64 noundef %12) #21
  %14 = getelementptr inbounds nuw %"class.rocksdb::IterKey", ptr %5, i32 0, i32 7
  store ptr %13, ptr %14, align 8, !tbaa !78
  %15 = load i64, ptr %4, align 8, !tbaa !4
  %16 = getelementptr inbounds nuw %"class.rocksdb::IterKey", ptr %5, i32 0, i32 8
  store i64 %15, ptr %16, align 8, !tbaa !77
  br label %17

17:                                               ; preds = %11, %10
  ret void
}