; Function Attrs: mustprogress uwtable
define void @_ZN7rocksdb7IterKey30EnlargeSecondaryBufferIfNeededEm(ptr noundef nonnull align 8 dereferenceable(208) %0, i64 noundef %1) local_unnamed_addr #4 align 2 {
  %3 = getelementptr inbounds nuw i8, ptr %0, i64 120
  %4 = load i64, ptr %3, align 8, !tbaa !95
  %.not = icmp ugt i64 %1, %4
  br i1 %.not, label %5, label %20

5:                                                ; preds = %2
  %6 = getelementptr inbounds nuw i8, ptr %0, i64 8
  %7 = load ptr, ptr %6, align 8, !tbaa !89
  %8 = getelementptr inbounds nuw i8, ptr %0, i64 112
  %9 = load ptr, ptr %8, align 8, !tbaa !96
  %10 = icmp eq ptr %7, %9
  br i1 %10, label %11, label %13

11:                                               ; preds = %5
  %12 = getelementptr inbounds nuw i8, ptr %0, i64 16
  store i64 0, ptr %12, align 8, !tbaa !93
  br label %13

13:                                               ; preds = %11, %5
  %14 = getelementptr inbounds nuw i8, ptr %0, i64 72
  %.not.i = icmp eq ptr %9, %14
  br i1 %.not.i, label %_ZN7rocksdb7IterKey20ResetSecondaryBufferEv.exit, label %15

15:                                               ; preds = %13
  %16 = icmp eq ptr %9, null
  br i1 %16, label %18, label %17

17:                                               ; preds = %15
  tail call void @_ZdaPv(ptr noundef nonnull %9) #21
  br label %18

18:                                               ; preds = %17, %15
  store ptr %14, ptr %8, align 8, !tbaa !96
  br label %_ZN7rocksdb7IterKey20ResetSecondaryBufferEv.exit

_ZN7rocksdb7IterKey20ResetSecondaryBufferEv.exit: ; preds = %13, %18
  store i64 39, ptr %3, align 8, !tbaa !95
  %19 = tail call noalias noundef nonnull ptr @_Znam(i64 noundef %1) #23
  store ptr %19, ptr %8, align 8, !tbaa !96
  store i64 %1, ptr %3, align 8, !tbaa !95
  br label %20

20:                                               ; preds = %2, %_ZN7rocksdb7IterKey20ResetSecondaryBufferEv.exit
  ret void
}